target datalayout = "e-m:e-p270:32:32-p271:32:32-p272:64:64-i64:64-i128:128-f80:128-n8:16:32:64-S128"
target triple = "x86_64-pc-linux-gnu"

%class.JVMCIEnv = type { ptr, i8, i8, ptr, i8, i8, ptr, i32, i32, ptr, ptr }

; Function Attrs: mustprogress nounwind uwtable
define hidden void @_ZN8JVMCIEnvC2EP10JavaThreadPKci(ptr noundef nonnull align 8 dereferenceable(64) %0, ptr noundef %1, ptr noundef %2, i32 noundef %3) unnamed_addr #1 align 2 {
  %5 = alloca ptr, align 8
  %6 = alloca ptr, align 8
  %7 = alloca ptr, align 8
  %8 = alloca i32, align 4
  store ptr %0, ptr %5, align 8
  store ptr %1, ptr %6, align 8
  store ptr %2, ptr %7, align 8
  store i32 %3, ptr %8, align 4
  %9 = load ptr, ptr %5, align 8
  %10 = getelementptr inbounds %class.JVMCIEnv, ptr %9, i32 0, i32 5
  store i8 0, ptr %10, align 1
  %11 = getelementptr inbounds %class.JVMCIEnv, ptr %9, i32 0, i32 6
  %12 = load ptr, ptr %7, align 8
  store ptr %12, ptr %11, align 8
  %13 = getelementptr inbounds %class.JVMCIEnv, ptr %9, i32 0, i32 7
  %14 = load i32, ptr %8, align 4
  store i32 %14, ptr %13, align 8
  %15 = getelementptr inbounds %class.JVMCIEnv, ptr %9, i32 0, i32 8
  store i32 0, ptr %15, align 4
  %16 = getelementptr inbounds %class.JVMCIEnv, ptr %9, i32 0, i32 9
  store ptr null, ptr %16, align 8
  %17 = getelementptr inbounds %class.JVMCIEnv, ptr %9, i32 0, i32 10
  store ptr null, ptr %17, align 8
  %18 = load ptr, ptr %6, align 8
  call void @_ZN8JVMCIEnv21init_env_mode_runtimeEP10JavaThreadP7JNIEnv_(ptr noundef nonnull align 8 dereferenceable(64) %9, ptr noundef %18, ptr noundef null)
  ret void
}