; Function Attrs: mustprogress nounwind uwtable
define hidden void @_ZN8JVMCIEnvC2EP10JavaThreadPKci(ptr noundef nonnull align 8 dereferenceable(64) %0, ptr noundef %1, ptr noundef %2, i32 noundef %3) unnamed_addr #0 align 2 {
  %5 = getelementptr inbounds i8, ptr %0, i64 25
  store i8 0, ptr %5, align 1
  %6 = getelementptr inbounds i8, ptr %0, i64 32
  store ptr %2, ptr %6, align 8
  %7 = getelementptr inbounds i8, ptr %0, i64 40
  store i32 %3, ptr %7, align 8
  %8 = getelementptr inbounds i8, ptr %0, i64 44
  tail call void @llvm.memset.p0.i64(ptr noundef nonnull align 4 dereferenceable(20) %8, i8 0, i64 20, i1 false)
  tail call void @_ZN8JVMCIEnv21init_env_mode_runtimeEP10JavaThreadP7JNIEnv_(ptr noundef nonnull align 8 dereferenceable(64) %0, ptr noundef %1, ptr noundef null)
  ret void
}